target datalayout = "e-m:e-p270:32:32-p271:32:32-p272:64:64-i64:64-i128:128-f80:128-n8:16:32:64-S128"
target triple = "x86_64-pc-linux-gnu"

%class.escaped = type { ptr, i8, i32 }

; Function Attrs: mustprogress nounwind uwtable
define hidden noundef ptr @_ZNK7escaped3endEv(ptr noundef nonnull align 8 dereferenceable(16) %0) #4 align 2 {
  %2 = alloca ptr, align 8
  %3 = alloca ptr, align 8
  %4 = alloca ptr, align 8
  %5 = alloca ptr, align 8
  store ptr %0, ptr %3, align 8, !tbaa !17
  %6 = load ptr, ptr %3, align 8
  %7 = getelementptr inbounds nuw %class.escaped, ptr %6, i32 0, i32 0
  %8 = load ptr, ptr %7, align 8, !tbaa !19
  %9 = icmp eq ptr %8, null
  br i1 %9, label %10, label %11

10:                                               ; preds = %1
  store ptr null, ptr %2, align 8
  br label %39

11:                                               ; preds = %1
  call void @llvm.lifetime.start.p0(i64 8, ptr %4) #3
  %12 = getelementptr inbounds nuw %class.escaped, ptr %6, i32 0, i32 0
  %13 = load ptr, ptr %12, align 8, !tbaa !19
  store ptr %13, ptr %4, align 8, !tbaa !23
  call void @llvm.lifetime.start.p0(i64 8, ptr %5) #3
  %14 = getelementptr inbounds nuw %class.escaped, ptr %6, i32 0, i32 0
  %15 = load ptr, ptr %14, align 8, !tbaa !19
  store ptr %15, ptr %5, align 8, !tbaa !23
  br label %16

16:                                               ; preds = %36, %11
  %17 = load ptr, ptr %4, align 8, !tbaa !23
  %18 = load i8, ptr %17, align 1, !tbaa !24
  %19 = icmp ne i8 %18, 0
  br i1 %19, label %20, label %37

20:                                               ; preds = %16
  %21 = getelementptr inbounds nuw %class.escaped, ptr %6, i32 0, i32 1
  %22 = load i8, ptr %21, align 8, !tbaa !25, !range !26, !noundef !27
  %23 = trunc i8 %22 to i1
  br i1 %23, label %24, label %29

24:                                               ; preds = %20
  %25 = load ptr, ptr %4, align 8, !tbaa !23
  %26 = load i8, ptr %25, align 1, !tbaa !24
  %27 = sext i8 %26 to i32
  %28 = icmp ne i32 %27, 10
  br i1 %28, label %29, label %33

29:                                               ; preds = %24, %20
  %30 = load ptr, ptr %4, align 8, !tbaa !23
  %31 = getelementptr inbounds nuw i8, ptr %30, i32 1
  store ptr %31, ptr %4, align 8, !tbaa !23
  %32 = load ptr, ptr %4, align 8, !tbaa !23
  store ptr %32, ptr %5, align 8, !tbaa !23
  br label %36

33:                                               ; preds = %24
  %34 = load ptr, ptr %4, align 8, !tbaa !23
  %35 = getelementptr inbounds nuw i8, ptr %34, i32 1
  store ptr %35, ptr %4, align 8, !tbaa !23
  br label %36

36:                                               ; preds = %33, %29
  br label %16, !llvm.loop !28

37:                                               ; preds = %16
  %38 = load ptr, ptr %5, align 8, !tbaa !23
  store ptr %38, ptr %2, align 8
  call void @llvm.lifetime.end.p0(i64 8, ptr %5) #3
  call void @llvm.lifetime.end.p0(i64 8, ptr %4) #3
  br label %39

39:                                               ; preds = %37, %10
  %40 = load ptr, ptr %2, align 8
  ret ptr %40
}