; Function Attrs: mustprogress nofree norecurse nosync nounwind willreturn memory(read, inaccessiblemem: none) uwtable
define hidden noundef ptr @_ZNK7escaped3endEv(ptr noundef nonnull readonly align 8 captures(none) dereferenceable(16) %0) local_unnamed_addr #9 align 2 {
  %2 = load ptr, ptr %0, align 8, !tbaa !13
  %3 = icmp eq ptr %2, null
  br i1 %3, label %.loopexit, label %.preheader

.preheader:                                       ; preds = %1
  %4 = load i8, ptr %2, align 1, !tbaa !17
  %.not14 = icmp eq i8 %4, 0
  br i1 %.not14, label %.loopexit, label %.lr.ph

.lr.ph:                                           ; preds = %.preheader
  %5 = getelementptr inbounds nuw i8, ptr %0, i64 8
  %6 = load i8, ptr %5, align 8, !tbaa !18, !range !19, !noundef !20
  %7 = trunc nuw i8 %6 to i1
  br i1 %7, label %.lr.ph.split, label %.lr.ph.split.us

.lr.ph.split.us:                                  ; preds = %.lr.ph, %.lr.ph.split.us
  %.0815.us = phi ptr [ %8, %.lr.ph.split.us ], [ %2, %.lr.ph ]
  %8 = getelementptr inbounds nuw i8, ptr %.0815.us, i64 1
  %9 = load i8, ptr %8, align 1, !tbaa !17
  %.not.us = icmp eq i8 %9, 0
  br i1 %.not.us, label %.loopexit, label %.lr.ph.split.us, !llvm.loop !21

.lr.ph.split:                                     ; preds = %.lr.ph, %.lr.ph.split
  %10 = phi i8 [ %12, %.lr.ph.split ], [ %4, %.lr.ph ]
  %.016 = phi ptr [ %spec.select, %.lr.ph.split ], [ %2, %.lr.ph ]
  %.0815 = phi ptr [ %11, %.lr.ph.split ], [ %2, %.lr.ph ]
  %.not13 = icmp eq i8 %10, 10
  %11 = getelementptr inbounds nuw i8, ptr %.0815, i64 1
  %spec.select = select i1 %.not13, ptr %.016, ptr %11
  %12 = load i8, ptr %11, align 1, !tbaa !17
  %.not = icmp eq i8 %12, 0
  br i1 %.not, label %.loopexit, label %.lr.ph.split, !llvm.loop !21

.loopexit:                                        ; preds = %.lr.ph.split.us, %.lr.ph.split, %.preheader, %1
  %.010 = phi ptr [ null, %1 ], [ %2, %.preheader ], [ %spec.select, %.lr.ph.split ], [ %8, %.lr.ph.split.us ]
  ret ptr %.010
}